	.file	"zad4.cpp"
	.intel_syntax noprefix
	.text
	.section .rdata,"dr"
_ZStL19piecewise_construct:
	.space 1
.lcomm _ZStL8__ioinit,1,1
	.section	.text$_ZN9CoolClass3setEi,"x"
	.linkonce discard
	.align 2
	.globl	_ZN9CoolClass3setEi
	.def	_ZN9CoolClass3setEi;	.scl	2;	.type	32;	.endef
	.seh_proc	_ZN9CoolClass3setEi
_ZN9CoolClass3setEi:
.LFB1559:
	push	rbp
	.seh_pushreg	rbp
	mov	rbp, rsp
	.seh_setframe	rbp, 0
	.seh_endprologue
	mov	QWORD PTR 16[rbp], rcx
	mov	DWORD PTR 24[rbp], edx
	mov	rax, QWORD PTR 16[rbp]
	mov	edx, DWORD PTR 24[rbp]
	mov	DWORD PTR 8[rax], edx
	nop
	pop	rbp
	ret
	.seh_endproc
	.section	.text$_ZN9CoolClass3getEv,"x"
	.linkonce discard
	.align 2
	.globl	_ZN9CoolClass3getEv
	.def	_ZN9CoolClass3getEv;	.scl	2;	.type	32;	.endef
	.seh_proc	_ZN9CoolClass3getEv
_ZN9CoolClass3getEv:
.LFB1560:
	push	rbp
	.seh_pushreg	rbp
	mov	rbp, rsp
	.seh_setframe	rbp, 0
	.seh_endprologue
	mov	QWORD PTR 16[rbp], rcx
	mov	rax, QWORD PTR 16[rbp]
	mov	eax, DWORD PTR 8[rax]
	pop	rbp
	ret
	.seh_endproc
	.section	.text$_ZN13PlainOldClass3setEi,"x"
	.linkonce discard
	.align 2
	.globl	_ZN13PlainOldClass3setEi
	.def	_ZN13PlainOldClass3setEi;	.scl	2;	.type	32;	.endef
	.seh_proc	_ZN13PlainOldClass3setEi
_ZN13PlainOldClass3setEi:
.LFB1561:
	push	rbp
	.seh_pushreg	rbp
	mov	rbp, rsp
	.seh_setframe	rbp, 0
	.seh_endprologue
	mov	QWORD PTR 16[rbp], rcx
	mov	DWORD PTR 24[rbp], edx
	mov	rax, QWORD PTR 16[rbp]
	mov	edx, DWORD PTR 24[rbp]
	mov	DWORD PTR [rax], edx
	nop
	pop	rbp
	ret
	.seh_endproc
	.section	.text$_ZN4BaseC2Ev,"x"
	.linkonce discard
	.align 2
	.globl	_ZN4BaseC2Ev
	.def	_ZN4BaseC2Ev;	.scl	2;	.type	32;	.endef
	.seh_proc	_ZN4BaseC2Ev
_ZN4BaseC2Ev:
.LFB1566:
	push	rbp
	.seh_pushreg	rbp
	mov	rbp, rsp
	.seh_setframe	rbp, 0
	.seh_endprologue
	mov	QWORD PTR 16[rbp], rcx
	lea	rdx, _ZTV4Base[rip+16]
	mov	rax, QWORD PTR 16[rbp]
	mov	QWORD PTR [rax], rdx
	nop
	pop	rbp
	ret
	.seh_endproc
	.section	.text$_ZN9CoolClassC1Ev,"x"
	.linkonce discard
	.align 2
	.globl	_ZN9CoolClassC1Ev
	.def	_ZN9CoolClassC1Ev;	.scl	2;	.type	32;	.endef
	.seh_proc	_ZN9CoolClassC1Ev
_ZN9CoolClassC1Ev:
.LFB1569:
	push	rbp
	.seh_pushreg	rbp
	mov	rbp, rsp
	.seh_setframe	rbp, 0
	sub	rsp, 32
	.seh_stackalloc	32
	.seh_endprologue
	mov	QWORD PTR 16[rbp], rcx
	mov	rax, QWORD PTR 16[rbp]
	mov	rcx, rax
	call	_ZN4BaseC2Ev
	lea	rdx, _ZTV9CoolClass[rip+16]
	mov	rax, QWORD PTR 16[rbp]
	mov	QWORD PTR [rax], rdx
	nop
	add	rsp, 32
	pop	rbp
	ret
	.seh_endproc
	.def	__main;	.scl	2;	.type	32;	.endef
	.text
	.globl	main
	.def	main;	.scl	2;	.type	32;	.endef
	.seh_proc	main
main:
.LFB1563:
	push	rbp
	.seh_pushreg	rbp
	push	rbx
	.seh_pushreg	rbx
	sub	rsp, 56
	.seh_stackalloc	56
	lea	rbp, 128[rsp]
	.seh_setframe	rbp, 128
	.seh_endprologue
	call	__main
	mov	ecx, 16
	call	_Znwy
	mov	rbx, rax
	mov	rcx, rbx
	call	_ZN9CoolClassC1Ev
	mov	QWORD PTR -88[rbp], rbx
	lea	rax, -92[rbp]
	mov	edx, 42
	mov	rcx, rax
	call	_ZN13PlainOldClass3setEi
	mov	rax, QWORD PTR -88[rbp]
	mov	rax, QWORD PTR [rax]
	mov	rax, QWORD PTR [rax]
	mov	rcx, QWORD PTR -88[rbp]
	mov	edx, 42
	call	rax
	mov	eax, 0
	add	rsp, 56
	pop	rbx
	pop	rbp
	ret
	.seh_endproc
	.globl	_ZTV9CoolClass
	.section	.rdata$_ZTV9CoolClass,"dr"
	.linkonce same_size
	.align 8
_ZTV9CoolClass:
	.quad	0
	.quad	_ZTI9CoolClass
	.quad	_ZN9CoolClass3setEi
	.quad	_ZN9CoolClass3getEv
	.globl	_ZTV4Base
	.section	.rdata$_ZTV4Base,"dr"
	.linkonce same_size
	.align 8
_ZTV4Base:
	.quad	0
	.quad	_ZTI4Base
	.quad	__cxa_pure_virtual
	.quad	__cxa_pure_virtual
	.globl	_ZTI9CoolClass
	.section	.rdata$_ZTI9CoolClass,"dr"
	.linkonce same_size
	.align 8
_ZTI9CoolClass:
	.quad	_ZTVN10__cxxabiv120__si_class_type_infoE+16
	.quad	_ZTS9CoolClass
	.quad	_ZTI4Base
	.globl	_ZTS9CoolClass
	.section	.rdata$_ZTS9CoolClass,"dr"
	.linkonce same_size
	.align 8
_ZTS9CoolClass:
	.ascii "9CoolClass\0"
	.globl	_ZTI4Base
	.section	.rdata$_ZTI4Base,"dr"
	.linkonce same_size
	.align 8
_ZTI4Base:
	.quad	_ZTVN10__cxxabiv117__class_type_infoE+16
	.quad	_ZTS4Base
	.globl	_ZTS4Base
	.section	.rdata$_ZTS4Base,"dr"
	.linkonce same_size
_ZTS4Base:
	.ascii "4Base\0"
	.text
	.def	__tcf_0;	.scl	3;	.type	32;	.endef
	.seh_proc	__tcf_0
__tcf_0:
.LFB2051:
	push	rbp
	.seh_pushreg	rbp
	mov	rbp, rsp
	.seh_setframe	rbp, 0
	sub	rsp, 32
	.seh_stackalloc	32
	.seh_endprologue
	lea	rcx, _ZStL8__ioinit[rip]
	call	_ZNSt8ios_base4InitD1Ev
	nop
	add	rsp, 32
	pop	rbp
	ret
	.seh_endproc
	.def	_Z41__static_initialization_and_destruction_0ii;	.scl	3;	.type	32;	.endef
	.seh_proc	_Z41__static_initialization_and_destruction_0ii
_Z41__static_initialization_and_destruction_0ii:
.LFB2050:
	push	rbp
	.seh_pushreg	rbp
	mov	rbp, rsp
	.seh_setframe	rbp, 0
	sub	rsp, 32
	.seh_stackalloc	32
	.seh_endprologue
	mov	DWORD PTR 16[rbp], ecx
	mov	DWORD PTR 24[rbp], edx
	cmp	DWORD PTR 16[rbp], 1
	jne	.L12
	cmp	DWORD PTR 24[rbp], 65535
	jne	.L12
	lea	rcx, _ZStL8__ioinit[rip]
	call	_ZNSt8ios_base4InitC1Ev
	lea	rcx, __tcf_0[rip]
	call	atexit
.L12:
	nop
	add	rsp, 32
	pop	rbp
	ret
	.seh_endproc
	.def	_GLOBAL__sub_I_main;	.scl	3;	.type	32;	.endef
	.seh_proc	_GLOBAL__sub_I_main
_GLOBAL__sub_I_main:
.LFB2052:
	push	rbp
	.seh_pushreg	rbp
	mov	rbp, rsp
	.seh_setframe	rbp, 0
	sub	rsp, 32
	.seh_stackalloc	32
	.seh_endprologue
	mov	edx, 65535
	mov	ecx, 1
	call	_Z41__static_initialization_and_destruction_0ii
	nop
	add	rsp, 32
	pop	rbp
	ret
	.seh_endproc
	.section	.ctors,"w"
	.align 8
	.quad	_GLOBAL__sub_I_main
	.ident	"GCC: (x86_64-win32-seh-rev0, Built by MinGW-W64 project) 8.1.0"
	.def	_Znwy;	.scl	2;	.type	32;	.endef
	.def	__cxa_pure_virtual;	.scl	2;	.type	32;	.endef
	.def	_ZNSt8ios_base4InitD1Ev;	.scl	2;	.type	32;	.endef
	.def	_ZNSt8ios_base4InitC1Ev;	.scl	2;	.type	32;	.endef
	.def	atexit;	.scl	2;	.type	32;	.endef
